target datalayout = "e-m:e-p270:32:32-p271:32:32-p272:64:64-i64:64-i128:128-f80:128-n8:16:32:64-S128"
target triple = "x86_64-pc-linux-gnu"

; Function Attrs: nounwind uwtable
define i32 @php_libxml_xmlCheckUTF8(ptr noundef %0) #0 {
  %2 = alloca i32, align 4
  %3 = alloca ptr, align 8
  %4 = alloca i64, align 8
  %5 = alloca i8, align 1
  store ptr %0, ptr %3, align 8
  store i64 0, ptr %4, align 8
  br label %6

6:                                                ; preds = %98, %1
  %7 = load ptr, ptr %3, align 8
  %8 = load i64, ptr %4, align 8
  %9 = add i64 %8, 1
  store i64 %9, ptr %4, align 8
  %10 = getelementptr inbounds i8, ptr %7, i64 %8
  %11 = load i8, ptr %10, align 1
  store i8 %11, ptr %5, align 1
  %12 = icmp ne i8 %11, 0
  br i1 %12, label %13, label %99

13:                                               ; preds = %6
  %14 = load i8, ptr %5, align 1
  %15 = zext i8 %14 to i32
  %16 = and i32 %15, 128
  %17 = icmp eq i32 %16, 0
  br i1 %17, label %18, label %19

18:                                               ; preds = %13
  br label %98

19:                                               ; preds = %13
  %20 = load i8, ptr %5, align 1
  %21 = zext i8 %20 to i32
  %22 = and i32 %21, 224
  %23 = icmp eq i32 %22, 192
  br i1 %23, label %24, label %35

24:                                               ; preds = %19
  %25 = load ptr, ptr %3, align 8
  %26 = load i64, ptr %4, align 8
  %27 = add i64 %26, 1
  store i64 %27, ptr %4, align 8
  %28 = getelementptr inbounds i8, ptr %25, i64 %26
  %29 = load i8, ptr %28, align 1
  %30 = zext i8 %29 to i32
  %31 = and i32 %30, 192
  %32 = icmp ne i32 %31, 128
  br i1 %32, label %33, label %34

33:                                               ; preds = %24
  store i32 0, ptr %2, align 4
  br label %100

34:                                               ; preds = %24
  br label %97

35:                                               ; preds = %19
  %36 = load i8, ptr %5, align 1
  %37 = zext i8 %36 to i32
  %38 = and i32 %37, 240
  %39 = icmp eq i32 %38, 224
  br i1 %39, label %40, label %60

40:                                               ; preds = %35
  %41 = load ptr, ptr %3, align 8
  %42 = load i64, ptr %4, align 8
  %43 = add i64 %42, 1
  store i64 %43, ptr %4, align 8
  %44 = getelementptr inbounds i8, ptr %41, i64 %42
  %45 = load i8, ptr %44, align 1
  %46 = zext i8 %45 to i32
  %47 = and i32 %46, 192
  %48 = icmp ne i32 %47, 128
  br i1 %48, label %58, label %49

49:                                               ; preds = %40
  %50 = load ptr, ptr %3, align 8
  %51 = load i64, ptr %4, align 8
  %52 = add i64 %51, 1
  store i64 %52, ptr %4, align 8
  %53 = getelementptr inbounds i8, ptr %50, i64 %51
  %54 = load i8, ptr %53, align 1
  %55 = zext i8 %54 to i32
  %56 = and i32 %55, 192
  %57 = icmp ne i32 %56, 128
  br i1 %57, label %58, label %59

58:                                               ; preds = %49, %40
  store i32 0, ptr %2, align 4
  br label %100

59:                                               ; preds = %49
  br label %96

60:                                               ; preds = %35
  %61 = load i8, ptr %5, align 1
  %62 = zext i8 %61 to i32
  %63 = and i32 %62, 248
  %64 = icmp eq i32 %63, 240
  br i1 %64, label %65, label %94

65:                                               ; preds = %60
  %66 = load ptr, ptr %3, align 8
  %67 = load i64, ptr %4, align 8
  %68 = add i64 %67, 1
  store i64 %68, ptr %4, align 8
  %69 = getelementptr inbounds i8, ptr %66, i64 %67
  %70 = load i8, ptr %69, align 1
  %71 = zext i8 %70 to i32
  %72 = and i32 %71, 192
  %73 = icmp ne i32 %72, 128
  br i1 %73, label %92, label %74

74:                                               ; preds = %65
  %75 = load ptr, ptr %3, align 8
  %76 = load i64, ptr %4, align 8
  %77 = add i64 %76, 1
  store i64 %77, ptr %4, align 8
  %78 = getelementptr inbounds i8, ptr %75, i64 %76
  %79 = load i8, ptr %78, align 1
  %80 = zext i8 %79 to i32
  %81 = and i32 %80, 192
  %82 = icmp ne i32 %81, 128
  br i1 %82, label %92, label %83

83:                                               ; preds = %74
  %84 = load ptr, ptr %3, align 8
  %85 = load i64, ptr %4, align 8
  %86 = add i64 %85, 1
  store i64 %86, ptr %4, align 8
  %87 = getelementptr inbounds i8, ptr %84, i64 %85
  %88 = load i8, ptr %87, align 1
  %89 = zext i8 %88 to i32
  %90 = and i32 %89, 192
  %91 = icmp ne i32 %90, 128
  br i1 %91, label %92, label %93

92:                                               ; preds = %83, %74, %65
  store i32 0, ptr %2, align 4
  br label %100

93:                                               ; preds = %83
  br label %95

94:                                               ; preds = %60
  store i32 0, ptr %2, align 4
  br label %100

95:                                               ; preds = %93
  br label %96

96:                                               ; preds = %95, %59
  br label %97

97:                                               ; preds = %96, %34
  br label %98

98:                                               ; preds = %97, %18
  br label %6

99:                                               ; preds = %6
  store i32 1, ptr %2, align 4
  br label %100

100:                                              ; preds = %99, %94, %92, %58, %33
  %101 = load i32, ptr %2, align 4
  ret i32 %101
}